target datalayout = "e-m:e-p270:32:32-p271:32:32-p272:64:64-i64:64-i128:128-f80:128-n8:16:32:64-S128"
target triple = "x86_64-pc-linux-gnu"

%class.Type = type <{ ptr, ptr, i32, [4 x i8] }>
%class.TypePtr.base = type <{ %class.Type.base, [4 x i8], ptr, i32, i32, i32 }>
%class.Type.base = type <{ ptr, ptr, i32 }>
%class.TypePtr = type <{ %class.Type.base, [4 x i8], ptr, i32, i32, i32, [4 x i8] }>
%class.TypeKlassPtr = type { %class.TypePtr.base, ptr, ptr }

; Function Attrs: mustprogress nounwind uwtable
define linkonce_odr hidden void @_ZN4TypeC2ENS_5TYPESE(ptr noundef nonnull align 8 dereferenceable(20) %0, i32 noundef %1) unnamed_addr #1 comdat align 2 {
  %3 = alloca ptr, align 8
  %4 = alloca i32, align 4
  store ptr %0, ptr %3, align 8
  store i32 %1, ptr %4, align 4
  %5 = load ptr, ptr %3, align 8
  store ptr getelementptr inbounds inrange(-16, 176) ({ [24 x ptr] }, ptr @_ZTV4Type, i32 0, i32 0, i32 2), ptr %5, align 8
  %6 = getelementptr inbounds %class.Type, ptr %5, i32 0, i32 1
  store ptr null, ptr %6, align 8
  %7 = getelementptr inbounds %class.Type, ptr %5, i32 0, i32 2
  %8 = load i32, ptr %4, align 4
  store i32 %8, ptr %7, align 8
  ret void
}

; Function Attrs: mustprogress nounwind uwtable
define linkonce_odr hidden void @_ZN7TypePtrC2EN4Type5TYPESENS_3PTREiPKS_i(ptr noundef nonnull align 8 dereferenceable(44) %0, i32 noundef %1, i32 noundef %2, i32 noundef %3, ptr noundef %4, i32 noundef %5) unnamed_addr #1 comdat align 2 {
  %7 = alloca ptr, align 8
  %8 = alloca i32, align 4
  %9 = alloca i32, align 4
  %10 = alloca i32, align 4
  %11 = alloca ptr, align 8
  %12 = alloca i32, align 4
  store ptr %0, ptr %7, align 8
  store i32 %1, ptr %8, align 4
  store i32 %2, ptr %9, align 4
  store i32 %3, ptr %10, align 4
  store ptr %4, ptr %11, align 8
  store i32 %5, ptr %12, align 4
  %13 = load ptr, ptr %7, align 8
  %14 = load i32, ptr %8, align 4
  call void @_ZN4TypeC2ENS_5TYPESE(ptr noundef nonnull align 8 dereferenceable(20) %13, i32 noundef %14)
  store ptr getelementptr inbounds inrange(-16, 224) ({ [30 x ptr] }, ptr @_ZTV7TypePtr, i32 0, i32 0, i32 2), ptr %13, align 8
  %15 = getelementptr inbounds %class.TypePtr, ptr %13, i32 0, i32 2
  %16 = load ptr, ptr %11, align 8
  store ptr %16, ptr %15, align 8
  %17 = getelementptr inbounds %class.TypePtr, ptr %13, i32 0, i32 3
  %18 = load i32, ptr %12, align 4
  store i32 %18, ptr %17, align 8
  %19 = getelementptr inbounds %class.TypePtr, ptr %13, i32 0, i32 4
  %20 = load i32, ptr %10, align 4
  store i32 %20, ptr %19, align 4
  %21 = getelementptr inbounds %class.TypePtr, ptr %13, i32 0, i32 5
  %22 = load i32, ptr %9, align 4
  store i32 %22, ptr %21, align 8
  ret void
}

; Function Attrs: mustprogress nounwind uwtable
define hidden void @_ZN12TypeKlassPtrC2EN4Type5TYPESEN7TypePtr3PTREP7ciKlassPK14TypeInterfacesi(ptr noundef nonnull align 8 dereferenceable(64) %0, i32 noundef %1, i32 noundef %2, ptr noundef %3, ptr noundef %4, i32 noundef %5) unnamed_addr #1 align 2 {
  %7 = alloca ptr, align 8
  %8 = alloca i32, align 4
  %9 = alloca i32, align 4
  %10 = alloca ptr, align 8
  %11 = alloca ptr, align 8
  %12 = alloca i32, align 4
  store ptr %0, ptr %7, align 8
  store i32 %1, ptr %8, align 4
  store i32 %2, ptr %9, align 4
  store ptr %3, ptr %10, align 8
  store ptr %4, ptr %11, align 8
  store i32 %5, ptr %12, align 4
  %13 = load ptr, ptr %7, align 8
  %14 = load i32, ptr %8, align 4
  %15 = load i32, ptr %9, align 4
  %16 = load i32, ptr %12, align 4
  call void @_ZN7TypePtrC2EN4Type5TYPESENS_3PTREiPKS_i(ptr noundef nonnull align 8 dereferenceable(44) %13, i32 noundef %14, i32 noundef %15, i32 noundef %16, ptr noundef null, i32 noundef 2147483647)
  store ptr getelementptr inbounds inrange(-16, 336) ({ [44 x ptr] }, ptr @_ZTV12TypeKlassPtr, i32 0, i32 0, i32 2), ptr %13, align 8
  %17 = getelementptr inbounds %class.TypeKlassPtr, ptr %13, i32 0, i32 1
  %18 = load ptr, ptr %10, align 8
  store ptr %18, ptr %17, align 8
  %19 = getelementptr inbounds %class.TypeKlassPtr, ptr %13, i32 0, i32 2
  %20 = load ptr, ptr %11, align 8
  store ptr %20, ptr %19, align 8
  ret void
}