; Function Attrs: mustprogress nofree norecurse nosync nounwind willreturn memory(argmem: write) uwtable
define hidden void @_ZN12TypeKlassPtrC2EN4Type5TYPESEN7TypePtr3PTREP7ciKlassPK14TypeInterfacesi(ptr nocapture noundef nonnull writeonly align 8 dereferenceable(64) %0, i32 noundef %1, i32 noundef %2, ptr noundef %3, ptr noundef %4, i32 noundef %5) unnamed_addr #9 align 2 {
  %7 = getelementptr inbounds i8, ptr %0, i64 8
  store ptr null, ptr %7, align 8
  %8 = getelementptr inbounds i8, ptr %0, i64 16
  store i32 %1, ptr %8, align 8
  %9 = getelementptr inbounds i8, ptr %0, i64 24
  store ptr null, ptr %9, align 8
  %10 = getelementptr inbounds i8, ptr %0, i64 32
  store i32 2147483647, ptr %10, align 8
  %11 = getelementptr inbounds i8, ptr %0, i64 36
  store i32 %5, ptr %11, align 4
  %12 = getelementptr inbounds i8, ptr %0, i64 40
  store i32 %2, ptr %12, align 8
  store ptr getelementptr inbounds inrange(-16, 336) (i8, ptr @_ZTV12TypeKlassPtr, i64 16), ptr %0, align 8
  %13 = getelementptr inbounds i8, ptr %0, i64 48
  store ptr %3, ptr %13, align 8
  %14 = getelementptr inbounds i8, ptr %0, i64 56
  store ptr %4, ptr %14, align 8
  ret void
}